(lp1
(lp2
(lp3
I0
aI1
aI0
aI0
aI0
aI1
aI0
aI1
aI0
aI0
aI0
aI0
aI0
aI0
aI0
aI0
aI0
aI0
aI0
aI0
aa(lp4
I0
aI0
aI1
aI0
aI0
aaa(lp5
(lp6
I0
aI0
aI0
aI0
aI0
aI1
aI0
aI1
aI0
aI0
aI0
aI0
aI0
aI0
aI0
aI0
aI0
aI0
aI0
aI0
aa(lp7
I0
aI0
aI1
aI0
aI0
aaa(lp8
(lp9
I0
aI1
aI0
aI1
aI0
aI0
aI0
aI1
aI0
aI0
aI0
aI0
aI0
aI0
aI0
aI0
aI0
aI0
aI0
aI0
aa(lp10
I0
aI1
aI0
aI0
aI0
aaa(lp11
(lp12
I0
aI1
aI0
aI1
aI0
aI0
aI0
aI0
aI0
aI0
aI0
aI0
aI0
aI0
aI0
aI0
aI0
aI0
aI0
aI0
aa(lp13
I0
aI1
aI0
aI0
aI0
aaa(lp14
(lp15
I0
aI1
aI0
aI0
aI0
aI1
aI0
aI1
aI0
aI0
aI0
aI0
aI0
aI0
aI0
aI0
aI0
aI0
aI0
aI0
aa(lp16
I0
aI0
aI0
aI1
aI0
aaa(lp17
(lp18
I0
aI0
aI0
aI1
aI0
aI1
aI0
aI1
aI0
aI0
aI0
aI0
aI0
aI0
aI0
aI0
aI0
aI0
aI0
aI0
aa(lp19
I0
aI1
aI0
aI0
aI0
aaa(lp20
(lp21
I0
aI1
aI0
aI1
aI0
aI0
aI0
aI0
aI0
aI0
aI0
aI0
aI0
aI0
aI0
aI0
aI0
aI0
aI0
aI0
aa(lp22
I0
aI1
aI0
aI0
aI0
aaa(lp23
(lp24
I0
aI1
aI0
aI0
aI0
aI1
aI0
aI1
aI0
aI0
aI0
aI0
aI0
aI0
aI0
aI0
aI0
aI0
aI0
aI0
aa(lp25
I0
aI0
aI0
aI1
aI0
aaa(lp26
(lp27
I0
aI0
aI0
aI0
aI0
aI1
aI0
aI1
aI0
aI0
aI0
aI0
aI0
aI0
aI0
aI0
aI0
aI0
aI0
aI0
aa(lp28
I0
aI0
aI0
aI1
aI0
aaa(lp29
(lp30
I0
aI0
aI0
aI1
aI0
aI1
aI0
aI0
aI0
aI0
aI0
aI0
aI0
aI0
aI0
aI0
aI0
aI0
aI0
aI0
aa(lp31
I0
aI1
aI0
aI0
aI0
aaa(lp32
(lp33
I0
aI1
aI0
aI0
aI0
aI0
aI0
aI1
aI0
aI0
aI0
aI0
aI0
aI0
aI0
aI0
aI0
aI0
aI0
aI0
aa(lp34
I0
aI0
aI0
aI1
aI0
aaa(lp35
(lp36
I0
aI0
aI0
aI0
aI0
aI1
aI0
aI1
aI0
aI0
aI0
aI0
aI0
aI0
aI0
aI0
aI0
aI0
aI0
aI0
aa(lp37
I0
aI0
aI0
aI1
aI0
aaa(lp38
(lp39
I0
aI0
aI0
aI0
aI0
aI1
aI0
aI1
aI0
aI0
aI0
aI0
aI0
aI0
aI0
aI0
aI0
aI0
aI0
aI0
aa(lp40
I0
aI0
aI0
aI1
aI0
aaa(lp41
(lp42
I0
aI0
aI0
aI0
aI0
aI1
aI0
aI1
aI0
aI0
aI0
aI0
aI0
aI0
aI0
aI0
aI0
aI0
aI0
aI0
aa(lp43
I0
aI0
aI0
aI1
aI0
aaa(lp44
(lp45
I0
aI0
aI0
aI0
aI0
aI1
aI0
aI1
aI0
aI0
aI0
aI0
aI0
aI0
aI0
aI0
aI0
aI0
aI0
aI0
aa(lp46
I0
aI0
aI0
aI1
aI0
aaa(lp47
(lp48
I0
aI0
aI0
aI0
aI0
aI1
aI0
aI1
aI0
aI0
aI0
aI0
aI0
aI0
aI0
aI0
aI0
aI0
aI0
aI0
aa(lp49
I0
aI0
aI0
aI1
aI0
aaa(lp50
(lp51
I0
aI0
aI0
aI0
aI0
aI1
aI0
aI1
aI0
aI0
aI0
aI0
aI0
aI0
aI0
aI0
aI0
aI0
aI0
aI0
aa(lp52
I0
aI0
aI0
aI1
aI0
aaa(lp53
(lp54
I0
aI0
aI0
aI0
aI0
aI1
aI0
aI1
aI0
aI0
aI0
aI0
aI0
aI0
aI0
aI0
aI0
aI0
aI0
aI0
aa(lp55
I0
aI0
aI0
aI1
aI0
aaa(lp56
(lp57
I0
aI0
aI0
aI0
aI0
aI1
aI1
aI0
aI0
aI0
aI0
aI0
aI0
aI0
aI0
aI0
aI0
aI0
aI0
aI0
aa(lp58
I0
aI0
aI0
aI1
aI0
aaa.