(lp1
(lp2
(lp3
I0
aI0
aI0
aI0
aI0
aI1
aI1
aI0
aI0
aI0
aI0
aI0
aI0
aI0
aI0
aI0
aI0
aI0
aI0
aI0
aa(lp4
I0
aI0
aI0
aI1
aI0
aaa(lp5
(lp6
I0
aI0
aI0
aI1
aI0
aI1
aI0
aI0
aI0
aI0
aI0
aI0
aI0
aI0
aI0
aI0
aI0
aI0
aI0
aI0
aa(lp7
I0
aI1
aI0
aI0
aI0
aaa(lp8
(lp9
I0
aI1
aI0
aI1
aI0
aI0
aI0
aI0
aI0
aI0
aI0
aI0
aI0
aI0
aI0
aI0
aI0
aI0
aI0
aI0
aa(lp10
I0
aI1
aI0
aI0
aI0
aaa(lp11
(lp12
I0
aI1
aI0
aI0
aI0
aI1
aI0
aI0
aI0
aI0
aI0
aI0
aI0
aI1
aI0
aI0
aI0
aI0
aI0
aI0
aa(lp13
I1
aI0
aI0
aI0
aI0
aaa(lp14
(lp15
I0
aI1
aI0
aI1
aI0
aI0
aI0
aI0
aI0
aI0
aI0
aI0
aI0
aI0
aI0
aI0
aI0
aI0
aI0
aI0
aa(lp16
I1
aI0
aI0
aI0
aI0
aaa(lp17
(lp18
I0
aI0
aI0
aI1
aI0
aI1
aI0
aI0
aI0
aI0
aI0
aI0
aI0
aI1
aI0
aI0
aI0
aI0
aI0
aI0
aa(lp19
I0
aI1
aI0
aI0
aI0
aaa(lp20
(lp21
I0
aI1
aI0
aI1
aI0
aI0
aI0
aI0
aI0
aI0
aI0
aI0
aI0
aI0
aI0
aI0
aI0
aI1
aI0
aI0
aa(lp22
I0
aI1
aI0
aI0
aI0
aaa(lp23
(lp24
I0
aI1
aI0
aI0
aI0
aI1
aI0
aI0
aI0
aI1
aI0
aI0
aI0
aI0
aI0
aI0
aI0
aI0
aI0
aI0
aa(lp25
I0
aI0
aI1
aI0
aI0
aaa(lp26
(lp27
I0
aI0
aI0
aI0
aI0
aI1
aI0
aI1
aI0
aI0
aI0
aI0
aI0
aI0
aI0
aI0
aI1
aI0
aI0
aI0
aa(lp28
I0
aI0
aI1
aI0
aI0
aaa(lp29
(lp30
I1
aI0
aI0
aI0
aI0
aI1
aI0
aI1
aI0
aI0
aI0
aI0
aI0
aI0
aI0
aI1
aI0
aI0
aI0
aI0
aa(lp31
I1
aI0
aI0
aI0
aI0
aaa.